; ModuleID = 'source-C-CXX/41/1360.cpp'
source_filename = "source-C-CXX/41/1360.cpp"
target datalayout = "e-m:e-p270:32:32-p271:32:32-p272:64:64-i64:64-f80:128-n8:16:32:64-S128"
target triple = "x86_64-pc-linux-gnu"

%"class.std::ios_base::Init" = type { i8 }
%"class.std::basic_istream" = type { i32 (...)**, i64, %"class.std::basic_ios" }
%"class.std::basic_ios" = type { %"class.std::ios_base", %"class.std::basic_ostream"*, i8, i8, %"class.std::basic_streambuf"*, %"class.std::ctype"*, %"class.std::num_put"*, %"class.std::num_get"* }
%"class.std::ios_base" = type { i32 (...)**, i64, i64, i32, i32, i32, %"struct.std::ios_base::_Callback_list"*, %"struct.std::ios_base::_Words", [8 x %"struct.std::ios_base::_Words"], i32, %"struct.std::ios_base::_Words"*, %"class.std::locale" }
%"struct.std::ios_base::_Callback_list" = type { %"struct.std::ios_base::_Callback_list"*, void (i32, %"class.std::ios_base"*, i32)*, i32, i32 }
%"struct.std::ios_base::_Words" = type { i8*, i64 }
%"class.std::locale" = type { %"class.std::locale::_Impl"* }
%"class.std::locale::_Impl" = type { i32, %"class.std::locale::facet"**, i64, %"class.std::locale::facet"**, i8** }
%"class.std::locale::facet" = type <{ i32 (...)**, i32, [4 x i8] }>
%"class.std::basic_ostream" = type { i32 (...)**, %"class.std::basic_ios" }
%"class.std::basic_streambuf" = type { i32 (...)**, i8*, i8*, i8*, i8*, i8*, i8*, %"class.std::locale" }
%"class.std::ctype" = type <{ %"class.std::locale::facet.base", [4 x i8], %struct.__locale_struct*, i8, [7 x i8], i32*, i32*, i16*, i8, [256 x i8], [256 x i8], i8, [6 x i8] }>
%"class.std::locale::facet.base" = type <{ i32 (...)**, i32 }>
%struct.__locale_struct = type { [13 x %struct.__locale_data*], i16*, i32*, i32*, [13 x i8*] }
%struct.__locale_data = type opaque
%"class.std::num_put" = type { %"class.std::locale::facet.base", [4 x i8] }
%"class.std::num_get" = type { %"class.std::locale::facet.base", [4 x i8] }

@_ZStL8__ioinit = internal global %"class.std::ios_base::Init" zeroinitializer, align 1
@__dso_handle = external hidden global i8
@_ZSt3cin = external global %"class.std::basic_istream", align 8
@_ZSt4cout = external global %"class.std::basic_ostream", align 8
@.str = private unnamed_addr constant [2 x i8] c" \00", align 1
@llvm.global_ctors = appending global [1 x { i32, void ()*, i8* }] [{ i32, void ()*, i8* } { i32 65535, void ()* @_GLOBAL__sub_I_1360.cpp, i8* null }]

declare void @_ZNSt8ios_base4InitC1Ev(%"class.std::ios_base::Init"* nonnull align 1 dereferenceable(1)) unnamed_addr #0

; Function Attrs: nounwind
declare void @_ZNSt8ios_base4InitD1Ev(%"class.std::ios_base::Init"* nonnull align 1 dereferenceable(1)) unnamed_addr #1

; Function Attrs: nofree nounwind
declare i32 @__cxa_atexit(void (i8*)*, i8*, i8*) local_unnamed_addr #2

; Function Attrs: mustprogress norecurse sspstrong uwtable
define dso_local i32 @main() local_unnamed_addr #3 {
  %1 = alloca i32, align 4
  %2 = alloca i32, align 4
  %3 = alloca [100001 x i32], align 16
  %4 = bitcast i32* %1 to i8*
  call void @llvm.lifetime.start.p0i8(i64 4, i8* nonnull %4) #6
  %5 = bitcast i32* %2 to i8*
  call void @llvm.lifetime.start.p0i8(i64 4, i8* nonnull %5) #6
  %6 = bitcast [100001 x i32]* %3 to i8*
  call void @llvm.lifetime.start.p0i8(i64 400004, i8* nonnull %6) #6
  %7 = call nonnull align 8 dereferenceable(16) %"class.std::basic_istream"* @_ZNSirsERi(%"class.std::basic_istream"* nonnull align 8 dereferenceable(16) @_ZSt3cin, i32* nonnull align 4 dereferenceable(4) %1)
  %8 = load i32, i32* %1, align 4, !tbaa !5
  %9 = icmp slt i32 %8, 1
  br i1 %9, label %10, label %17

10:                                               ; preds = %17, %0
  %11 = call nonnull align 8 dereferenceable(16) %"class.std::basic_istream"* @_ZNSirsERi(%"class.std::basic_istream"* nonnull align 8 dereferenceable(16) @_ZSt3cin, i32* nonnull align 4 dereferenceable(4) %2)
  %12 = load i32, i32* %2, align 4, !tbaa !5
  %13 = add nsw i32 %12, -1
  %14 = getelementptr inbounds [100001 x i32], [100001 x i32]* %3, i64 0, i64 0
  store i32 %13, i32* %14, align 16, !tbaa !5
  %15 = load i32, i32* %1, align 4, !tbaa !5
  %16 = icmp slt i32 %15, 1
  br i1 %16, label %25, label %36

17:                                               ; preds = %0, %17
  %18 = phi i64 [ %21, %17 ], [ 1, %0 ]
  %19 = getelementptr inbounds [100001 x i32], [100001 x i32]* %3, i64 0, i64 %18
  %20 = call nonnull align 8 dereferenceable(16) %"class.std::basic_istream"* @_ZNSirsERi(%"class.std::basic_istream"* nonnull align 8 dereferenceable(16) @_ZSt3cin, i32* nonnull align 4 dereferenceable(4) %19)
  %21 = add nuw nsw i64 %18, 1
  %22 = load i32, i32* %1, align 4, !tbaa !5
  %23 = sext i32 %22 to i64
  %24 = icmp slt i64 %18, %23
  br i1 %24, label %17, label %10, !llvm.loop !9

25:                                               ; preds = %73, %10
  %26 = getelementptr inbounds [100001 x i32], [100001 x i32]* %3, i64 0, i64 1
  %27 = load i32, i32* %26, align 4, !tbaa !5
  %28 = call nonnull align 8 dereferenceable(8) %"class.std::basic_ostream"* @_ZNSolsEi(%"class.std::basic_ostream"* nonnull align 8 dereferenceable(8) @_ZSt4cout, i32 %27)
  %29 = getelementptr inbounds [100001 x i32], [100001 x i32]* %3, i64 0, i64 2
  %30 = load i32, i32* %29, align 8, !tbaa !5
  %31 = load i32, i32* %2, align 4, !tbaa !5
  %32 = icmp ne i32 %30, %31
  %33 = load i32, i32* %1, align 4
  %34 = icmp sgt i32 %33, 1
  %35 = select i1 %32, i1 %34, i1 false
  br i1 %35, label %77, label %92

36:                                               ; preds = %10, %73
  %37 = phi i32 [ %75, %73 ], [ 1, %10 ]
  %38 = sext i32 %37 to i64
  %39 = getelementptr inbounds [100001 x i32], [100001 x i32]* %3, i64 0, i64 %38
  %40 = load i32, i32* %39, align 4, !tbaa !5
  %41 = icmp eq i32 %40, %12
  br i1 %41, label %73, label %42

42:                                               ; preds = %36
  %43 = add nsw i32 %37, -1
  %44 = sext i32 %43 to i64
  %45 = getelementptr inbounds [100001 x i32], [100001 x i32]* %3, i64 0, i64 %44
  %46 = load i32, i32* %45, align 4, !tbaa !5
  %47 = icmp eq i32 %46, %12
  br i1 %47, label %48, label %73

48:                                               ; preds = %42
  %49 = sext i32 %37 to i64
  %50 = getelementptr inbounds [100001 x i32], [100001 x i32]* %3, i64 0, i64 %49
  store i32 %40, i32* %45, align 4, !tbaa !5
  store i32 %12, i32* %50, align 4, !tbaa !5
  %51 = add nsw i64 %44, -1
  %52 = getelementptr inbounds [100001 x i32], [100001 x i32]* %3, i64 0, i64 %51
  %53 = load i32, i32* %52, align 4, !tbaa !5
  %54 = icmp eq i32 %53, %12
  br i1 %54, label %55, label %70, !llvm.loop !11

55:                                               ; preds = %48, %55
  %56 = phi i32* [ %67, %55 ], [ %52, %48 ]
  %57 = phi i64 [ %66, %55 ], [ %51, %48 ]
  %58 = phi i64 [ %57, %55 ], [ %44, %48 ]
  %59 = shl i64 %58, 32
  %60 = ashr exact i64 %59, 32
  %61 = getelementptr inbounds [100001 x i32], [100001 x i32]* %3, i64 0, i64 %60
  %62 = load i32, i32* %61, align 4, !tbaa !5
  %63 = shl i64 %58, 32
  %64 = ashr exact i64 %63, 32
  %65 = getelementptr inbounds [100001 x i32], [100001 x i32]* %3, i64 0, i64 %64
  store i32 %62, i32* %56, align 4, !tbaa !5
  store i32 %12, i32* %65, align 4, !tbaa !5
  %66 = add i64 %57, -1
  %67 = getelementptr inbounds [100001 x i32], [100001 x i32]* %3, i64 0, i64 %66
  %68 = load i32, i32* %67, align 4, !tbaa !5
  %69 = icmp eq i32 %68, %12
  br i1 %69, label %55, label %70, !llvm.loop !11

70:                                               ; preds = %55, %48
  %71 = phi i64 [ %44, %48 ], [ %57, %55 ]
  %72 = trunc i64 %71 to i32
  br label %73

73:                                               ; preds = %70, %42, %36
  %74 = phi i32 [ %37, %36 ], [ %37, %42 ], [ %72, %70 ]
  %75 = add nsw i32 %74, 1
  %76 = icmp slt i32 %74, %15
  br i1 %76, label %36, label %25, !llvm.loop !12

77:                                               ; preds = %25, %77
  %78 = phi i64 [ %83, %77 ], [ 2, %25 ]
  %79 = call nonnull align 8 dereferenceable(8) %"class.std::basic_ostream"* @_ZSt16__ostream_insertIcSt11char_traitsIcEERSt13basic_ostreamIT_T0_ES6_PKS3_l(%"class.std::basic_ostream"* nonnull align 8 dereferenceable(8) @_ZSt4cout, i8* nonnull getelementptr inbounds ([2 x i8], [2 x i8]* @.str, i64 0, i64 0), i64 1)
  %80 = getelementptr inbounds [100001 x i32], [100001 x i32]* %3, i64 0, i64 %78
  %81 = load i32, i32* %80, align 4, !tbaa !5
  %82 = call nonnull align 8 dereferenceable(8) %"class.std::basic_ostream"* @_ZNSolsEi(%"class.std::basic_ostream"* nonnull align 8 dereferenceable(8) @_ZSt4cout, i32 %81)
  %83 = add nuw nsw i64 %78, 1
  %84 = getelementptr inbounds [100001 x i32], [100001 x i32]* %3, i64 0, i64 %83
  %85 = load i32, i32* %84, align 4, !tbaa !5
  %86 = load i32, i32* %2, align 4, !tbaa !5
  %87 = icmp ne i32 %85, %86
  %88 = load i32, i32* %1, align 4
  %89 = sext i32 %88 to i64
  %90 = icmp slt i64 %78, %89
  %91 = select i1 %87, i1 %90, i1 false
  br i1 %91, label %77, label %92, !llvm.loop !13

92:                                               ; preds = %77, %25
  call void @llvm.lifetime.end.p0i8(i64 400004, i8* nonnull %6) #6
  call void @llvm.lifetime.end.p0i8(i64 4, i8* nonnull %5) #6
  call void @llvm.lifetime.end.p0i8(i64 4, i8* nonnull %4) #6
  ret i32 0
}

; Function Attrs: argmemonly mustprogress nofree nosync nounwind willreturn
declare void @llvm.lifetime.start.p0i8(i64 immarg, i8* nocapture) #4

declare nonnull align 8 dereferenceable(16) %"class.std::basic_istream"* @_ZNSirsERi(%"class.std::basic_istream"* nonnull align 8 dereferenceable(16), i32* nonnull align 4 dereferenceable(4)) local_unnamed_addr #0

; Function Attrs: argmemonly mustprogress nofree nosync nounwind willreturn
declare void @llvm.lifetime.end.p0i8(i64 immarg, i8* nocapture) #4

declare nonnull align 8 dereferenceable(8) %"class.std::basic_ostream"* @_ZNSolsEi(%"class.std::basic_ostream"* nonnull align 8 dereferenceable(8), i32) local_unnamed_addr #0

declare nonnull align 8 dereferenceable(8) %"class.std::basic_ostream"* @_ZSt16__ostream_insertIcSt11char_traitsIcEERSt13basic_ostreamIT_T0_ES6_PKS3_l(%"class.std::basic_ostream"* nonnull align 8 dereferenceable(8), i8*, i64) local_unnamed_addr #0

; Function Attrs: sspstrong uwtable
define internal void @_GLOBAL__sub_I_1360.cpp() #5 section ".text.startup" {
  tail call void @_ZNSt8ios_base4InitC1Ev(%"class.std::ios_base::Init"* nonnull align 1 dereferenceable(1) @_ZStL8__ioinit)
  %1 = tail call i32 @__cxa_atexit(void (i8*)* bitcast (void (%"class.std::ios_base::Init"*)* @_ZNSt8ios_base4InitD1Ev to void (i8*)*), i8* getelementptr inbounds (%"class.std::ios_base::Init", %"class.std::ios_base::Init"* @_ZStL8__ioinit, i64 0, i32 0), i8* nonnull @__dso_handle) #6
  ret void
}


!llvm.module.flags = !{!0, !1, !2, !3}
!llvm.ident = !{!4}

!0 = !{i32 1, !"wchar_size", i32 4}
!1 = !{i32 7, !"PIC Level", i32 2}
!2 = !{i32 7, !"PIE Level", i32 2}
!3 = !{i32 7, !"uwtable", i32 1}
!4 = !{!"clang version 13.0.0"}
!5 = !{!6, !6, i64 0}
!6 = !{!"int", !7, i64 0}
!7 = !{!"omnipotent char", !8, i64 0}
!8 = !{!"Simple C++ TBAA"}
!9 = distinct !{!9, !10}
!10 = !{!"llvm.loop.mustprogress"}
!11 = distinct !{!11, !10}
!12 = distinct !{!12, !10}
!13 = distinct !{!13, !10, !14}
!14 = !{!"llvm.loop.peeled.count", i32 1}
